target datalayout = "e-m:e-p270:32:32-p271:32:32-p272:64:64-i64:64-i128:128-f80:128-n8:16:32:64-S128"
target triple = "x86_64-pc-linux-gnu"

@proto_register_rdp_egfx.ett = internal global [10 x ptr] [ptr @ett_rdp_egfx, ptr @ett_egfx_caps, ptr @ett_egfx_cap, ptr @ett_egfx_cap_version, ptr @ett_egfx_ack, ptr @ett_egfx_ackqoe, ptr @ett_egfx_reset, ptr @ett_egfx_capsconfirm, ptr @ett_egfx_monitors, ptr @ett_egfx_monitordef], align 16
@.str.58 = private unnamed_addr constant [38 x i8] c"RDP Graphic pipeline channel Protocol\00", align 1
@.str.59 = private unnamed_addr constant [5 x i8] c"EGFX\00", align 1
@.str.60 = private unnamed_addr constant [9 x i8] c"rdp_egfx\00", align 1
@proto_rdp_egfx = internal global i32 0, align 4

; Function Attrs: null_pointer_is_valid sspstrong uwtable
define hidden void @proto_register_rdp_egfx() #0 {
  %1 = alloca ptr, align 8
  call void @llvm.lifetime.start.p0(i64 8, ptr %1) #7
  %2 = call i32 @proto_register_protocol(ptr noundef @.str.58, ptr noundef @.str.59, ptr noundef @.str.60)
  store i32 %2, ptr @proto_rdp_egfx, align 4
  %3 = load i32, ptr @proto_rdp_egfx, align 4
  call void @proto_register_field_array(i32 noundef %3, ptr noundef @proto_register_rdp_egfx.hf, i32 noundef 30)
  call void @proto_register_subtree_array(ptr noundef @proto_register_rdp_egfx.ett, i32 noundef 10)
  %4 = load i32, ptr @proto_rdp_egfx, align 4
  %5 = call ptr @expert_register_protocol(i32 noundef %4)
  store ptr %5, ptr %1, align 8
  %6 = load ptr, ptr %1, align 8
  call void @expert_register_field_array(ptr noundef %6, ptr noundef @proto_register_rdp_egfx.ei, i32 noundef 2)
  %7 = load i32, ptr @proto_rdp_egfx, align 4
  %8 = call ptr @register_dissector(ptr noundef @.str.60, ptr noundef @dissect_rdp_egfx, i32 noundef %7)
  call void @llvm.lifetime.end.p0(i64 8, ptr %1) #7
  ret void
}